target datalayout = "e-m:e-p270:32:32-p271:32:32-p272:64:64-i64:64-i128:128-f80:128-n8:16:32:64-S128"
target triple = "x86_64-unknown-linux-gnu"

%struct.NotifierList = type { %struct.anon }
%struct.anon = type { ptr }
%struct.QTailQLink = type { ptr, ptr }
%struct.CompareState = type { %struct.Object, ptr, ptr, ptr, ptr, %struct.CharBackend, %struct.CharBackend, %struct.CharBackend, %struct.CharBackend, %struct.SocketReadState, %struct.SocketReadState, %struct.SocketReadState, %struct.SendCo, %struct.SendCo, i8, i64, i32, %struct._GQueue, ptr, ptr, ptr, ptr, ptr, i32, %union.anon.0 }
%struct.Object = type { ptr, ptr, ptr, i32, ptr }
%struct.CharBackend = type { ptr, ptr, ptr, ptr, ptr, ptr, i32, i32 }
%struct.SocketReadState = type { i32, i8, i32, i32, i32, [69632 x i8], ptr }
%struct.SendCo = type { ptr, ptr, ptr, %struct._GQueue, i8, i8, i32 }
%struct._GQueue = type { ptr, ptr, i32 }
%union.anon.0 = type { %struct.QTailQLink }
%struct.SendEntry = type { i32, i32, ptr }

@colo_compare_notifiers = internal global %struct.NotifierList zeroinitializer, align 8
@__const.notify_remote_frame.msg = private unnamed_addr constant [14 x i8] c"DO_CHECKPOINT\00", align 1
@.str.41 = private unnamed_addr constant [29 x i8] c"Notify Xen COLO-frame failed\00", align 1

; Function Attrs: nounwind sspstrong uwtable
define internal i32 @compare_chr_send(ptr noundef %s, ptr noundef %buf, i32 noundef %size, i32 noundef %vnet_hdr_len, i1 noundef zeroext %notify_remote_frame, i1 noundef zeroext %zero_copy) #0 {
entry:
  %retval = alloca i32, align 4
  %s.addr = alloca ptr, align 8
  %buf.addr = alloca ptr, align 8
  %size.addr = alloca i32, align 4
  %vnet_hdr_len.addr = alloca i32, align 4
  %notify_remote_frame.addr = alloca i8, align 1
  %zero_copy.addr = alloca i8, align 1
  %sendco = alloca ptr, align 8
  %entry2 = alloca ptr, align 8
  store ptr %s, ptr %s.addr, align 8
  store ptr %buf, ptr %buf.addr, align 8
  store i32 %size, ptr %size.addr, align 4
  store i32 %vnet_hdr_len, ptr %vnet_hdr_len.addr, align 4
  %frombool = zext i1 %notify_remote_frame to i8
  store i8 %frombool, ptr %notify_remote_frame.addr, align 1
  %frombool1 = zext i1 %zero_copy to i8
  store i8 %frombool1, ptr %zero_copy.addr, align 1
  %0 = load i8, ptr %notify_remote_frame.addr, align 1
  %tobool = trunc i8 %0 to i1
  br i1 %tobool, label %if.then, label %if.else

if.then:                                          ; preds = %entry
  %1 = load ptr, ptr %s.addr, align 8
  %notify_sendco = getelementptr inbounds %struct.CompareState, ptr %1, i32 0, i32 13
  store ptr %notify_sendco, ptr %sendco, align 8
  br label %if.end

if.else:                                          ; preds = %entry
  %2 = load ptr, ptr %s.addr, align 8
  %out_sendco = getelementptr inbounds %struct.CompareState, ptr %2, i32 0, i32 12
  store ptr %out_sendco, ptr %sendco, align 8
  br label %if.end

if.end:                                           ; preds = %if.else, %if.then
  %3 = load i32, ptr %size.addr, align 4
  %tobool3 = icmp ne i32 %3, 0
  br i1 %tobool3, label %if.end5, label %if.then4

if.then4:                                         ; preds = %if.end
  store i32 -1, ptr %retval, align 4
  br label %return

if.end5:                                          ; preds = %if.end
  %call = call noalias ptr @g_slice_alloc(i64 noundef 16) #12
  store ptr %call, ptr %entry2, align 8
  %4 = load i32, ptr %size.addr, align 4
  %5 = load ptr, ptr %entry2, align 8
  %size6 = getelementptr inbounds %struct.SendEntry, ptr %5, i32 0, i32 0
  store i32 %4, ptr %size6, align 8
  %6 = load i32, ptr %vnet_hdr_len.addr, align 4
  %7 = load ptr, ptr %entry2, align 8
  %vnet_hdr_len7 = getelementptr inbounds %struct.SendEntry, ptr %7, i32 0, i32 1
  store i32 %6, ptr %vnet_hdr_len7, align 4
  %8 = load i8, ptr %zero_copy.addr, align 1
  %tobool8 = trunc i8 %8 to i1
  br i1 %tobool8, label %if.then9, label %if.else11

if.then9:                                         ; preds = %if.end5
  %9 = load ptr, ptr %buf.addr, align 8
  %10 = load ptr, ptr %entry2, align 8
  %buf10 = getelementptr inbounds %struct.SendEntry, ptr %10, i32 0, i32 2
  store ptr %9, ptr %buf10, align 8
  br label %if.end16

if.else11:                                        ; preds = %if.end5
  %11 = load i32, ptr %size.addr, align 4
  %conv = zext i32 %11 to i64
  %call12 = call noalias ptr @g_malloc(i64 noundef %conv) #12
  %12 = load ptr, ptr %entry2, align 8
  %buf13 = getelementptr inbounds %struct.SendEntry, ptr %12, i32 0, i32 2
  store ptr %call12, ptr %buf13, align 8
  %13 = load ptr, ptr %entry2, align 8
  %buf14 = getelementptr inbounds %struct.SendEntry, ptr %13, i32 0, i32 2
  %14 = load ptr, ptr %buf14, align 8
  %15 = load ptr, ptr %buf.addr, align 8
  %16 = load i32, ptr %size.addr, align 4
  %conv15 = zext i32 %16 to i64
  call void @llvm.memcpy.p0.p0.i64(ptr align 1 %14, ptr align 1 %15, i64 %conv15, i1 false)
  br label %if.end16

if.end16:                                         ; preds = %if.else11, %if.then9
  %17 = load ptr, ptr %sendco, align 8
  %send_list = getelementptr inbounds %struct.SendCo, ptr %17, i32 0, i32 3
  %18 = load ptr, ptr %entry2, align 8
  call void @g_queue_push_tail(ptr noundef %send_list, ptr noundef %18)
  %19 = load ptr, ptr %sendco, align 8
  %done = getelementptr inbounds %struct.SendCo, ptr %19, i32 0, i32 5
  %20 = load i8, ptr %done, align 1
  %tobool17 = trunc i8 %20 to i1
  br i1 %tobool17, label %if.then18, label %if.end26

if.then18:                                        ; preds = %if.end16
  %21 = load ptr, ptr %sendco, align 8
  %call19 = call ptr @qemu_coroutine_create(ptr noundef @_compare_chr_send, ptr noundef %21)
  %22 = load ptr, ptr %sendco, align 8
  %co = getelementptr inbounds %struct.SendCo, ptr %22, i32 0, i32 0
  store ptr %call19, ptr %co, align 8
  %23 = load ptr, ptr %sendco, align 8
  %done20 = getelementptr inbounds %struct.SendCo, ptr %23, i32 0, i32 5
  store i8 0, ptr %done20, align 1
  %24 = load ptr, ptr %sendco, align 8
  %co21 = getelementptr inbounds %struct.SendCo, ptr %24, i32 0, i32 0
  %25 = load ptr, ptr %co21, align 8
  call void @qemu_coroutine_enter(ptr noundef %25)
  %26 = load ptr, ptr %sendco, align 8
  %done22 = getelementptr inbounds %struct.SendCo, ptr %26, i32 0, i32 5
  %27 = load i8, ptr %done22, align 1
  %tobool23 = trunc i8 %27 to i1
  br i1 %tobool23, label %if.then24, label %if.end25

if.then24:                                        ; preds = %if.then18
  %28 = load ptr, ptr %sendco, align 8
  %ret = getelementptr inbounds %struct.SendCo, ptr %28, i32 0, i32 6
  %29 = load i32, ptr %ret, align 4
  store i32 %29, ptr %retval, align 4
  br label %return

if.end25:                                         ; preds = %if.then18
  br label %if.end26

if.end26:                                         ; preds = %if.end25, %if.end16
  store i32 0, ptr %retval, align 4
  br label %return

return:                                           ; preds = %if.end26, %if.then24, %if.then4
  %30 = load i32, ptr %retval, align 4
  ret i32 %30
}

; Function Attrs: nounwind sspstrong uwtable
define internal void @notify_remote_frame(ptr noundef %s) #0 {
entry:
  %s.addr = alloca ptr, align 8
  %msg = alloca [14 x i8], align 1
  %ret = alloca i32, align 4
  store ptr %s, ptr %s.addr, align 8
  call void @llvm.memcpy.p0.p0.i64(ptr align 1 %msg, ptr align 1 @__const.notify_remote_frame.msg, i64 14, i1 false)
  store i32 0, ptr %ret, align 4
  %0 = load ptr, ptr %s.addr, align 8
  %arraydecay = getelementptr inbounds [14 x i8], ptr %msg, i64 0, i64 0
  %arraydecay1 = getelementptr inbounds [14 x i8], ptr %msg, i64 0, i64 0
  %call = call i64 @strlen(ptr noundef %arraydecay1) #14
  %conv = trunc i64 %call to i32
  %call2 = call i32 @compare_chr_send(ptr noundef %0, ptr noundef %arraydecay, i32 noundef %conv, i32 noundef 0, i1 noundef zeroext true, i1 noundef zeroext false)
  store i32 %call2, ptr %ret, align 4
  %1 = load i32, ptr %ret, align 4
  %cmp = icmp slt i32 %1, 0
  br i1 %cmp, label %if.then, label %if.end

if.then:                                          ; preds = %entry
  call void (ptr, ...) @error_report(ptr noundef @.str.41)
  br label %if.end

if.end:                                           ; preds = %if.then, %entry
  ret void
}

; Function Attrs: nounwind sspstrong uwtable
define internal void @colo_compare_inconsistency_notify(ptr noundef %s) #0 {
entry:
  %s.addr = alloca ptr, align 8
  store ptr %s, ptr %s.addr, align 8
  %0 = load ptr, ptr %s.addr, align 8
  %notify_dev = getelementptr inbounds %struct.CompareState, ptr %0, i32 0, i32 4
  %1 = load ptr, ptr %notify_dev, align 8
  %tobool = icmp ne ptr %1, null
  br i1 %tobool, label %if.then, label %if.else

if.then:                                          ; preds = %entry
  %2 = load ptr, ptr %s.addr, align 8
  call void @notify_remote_frame(ptr noundef %2)
  br label %if.end

if.else:                                          ; preds = %entry
  %call = call ptr @migrate_get_current()
  call void @notifier_list_notify(ptr noundef @colo_compare_notifiers, ptr noundef %call)
  br label %if.end

if.end:                                           ; preds = %if.else, %if.then
  ret void
}