; Function Attrs: nounwind sspstrong uwtable
define internal fastcc void @colo_compare_inconsistency_notify(ptr noundef %s) unnamed_addr #0 {
entry:
  %notify_dev = getelementptr inbounds nuw i8, ptr %s, i64 64
  %0 = load ptr, ptr %notify_dev, align 8
  %tobool.not = icmp eq ptr %0, null
  br i1 %tobool.not, label %if.else, label %if.then

if.then:                                          ; preds = %entry
  %call.i.i = tail call noalias dereferenceable_or_null(16) ptr @g_slice_alloc(i64 noundef 16) #18
  store i32 13, ptr %call.i.i, align 8
  %vnet_hdr_len7.i.i = getelementptr inbounds nuw i8, ptr %call.i.i, i64 4
  store i32 0, ptr %vnet_hdr_len7.i.i, align 4
  %call12.i.i = tail call noalias dereferenceable_or_null(13) ptr @g_malloc(i64 noundef 13) #18
  tail call void @llvm.memcpy.p0.p0.i64(ptr noundef nonnull align 1 dereferenceable(13) %call12.i.i, ptr noundef nonnull align 1 dereferenceable(13) @__const.notify_remote_frame.msg, i64 13, i1 false)
  %1 = getelementptr inbounds nuw i8, ptr %call.i.i, i64 8
  store ptr %call12.i.i, ptr %1, align 8
  %send_list.i.i = getelementptr inbounds nuw i8, ptr %s, i64 209368
  tail call void @g_queue_push_tail(ptr noundef nonnull %send_list.i.i, ptr noundef nonnull %call.i.i) #16
  %done.i.i = getelementptr inbounds nuw i8, ptr %s, i64 209393
  %2 = load i8, ptr %done.i.i, align 1
  %tobool17.i.i = trunc i8 %2 to i1
  br i1 %tobool17.i.i, label %if.then18.i.i, label %if.end

if.then18.i.i:                                    ; preds = %if.then
  %sendco.0.i.i = getelementptr inbounds nuw i8, ptr %s, i64 209344
  %call19.i.i = tail call ptr @qemu_coroutine_create(ptr noundef nonnull @_compare_chr_send, ptr noundef nonnull %sendco.0.i.i) #16
  store ptr %call19.i.i, ptr %sendco.0.i.i, align 8
  store i8 0, ptr %done.i.i, align 1
  tail call void @qemu_coroutine_enter(ptr noundef %call19.i.i) #16
  %3 = load i8, ptr %done.i.i, align 1
  %tobool23.i.i = trunc i8 %3 to i1
  br i1 %tobool23.i.i, label %compare_chr_send.exit.i, label %if.end

compare_chr_send.exit.i:                          ; preds = %if.then18.i.i
  %ret.i.i = getelementptr inbounds nuw i8, ptr %s, i64 209396
  %4 = load i32, ptr %ret.i.i, align 4
  %cmp.i = icmp slt i32 %4, 0
  br i1 %cmp.i, label %if.then.i, label %if.end

if.then.i:                                        ; preds = %compare_chr_send.exit.i
  tail call void (ptr, ...) @error_report(ptr noundef nonnull @.str.41) #16
  br label %if.end

if.else:                                          ; preds = %entry
  %call = tail call ptr @migrate_get_current() #16
  tail call void @notifier_list_notify(ptr noundef nonnull @colo_compare_notifiers, ptr noundef %call) #16
  br label %if.end

if.end:                                           ; preds = %if.then.i, %compare_chr_send.exit.i, %if.then18.i.i, %if.then, %if.else
  ret void
}